target datalayout = "e-m:e-p270:32:32-p271:32:32-p272:64:64-i64:64-i128:128-f80:128-n8:16:32:64-S128"
target triple = "x86_64-pc-linux-gnu"

%"class.Imf_3_4::Header" = type <{ %"class.std::map.3", i8, [7 x i8] }>
%"class.std::map.3" = type { %"class.std::_Rb_tree.4" }
%"class.std::_Rb_tree.4" = type { %"struct.std::_Rb_tree<Imf_3_4::Name, std::pair<const Imf_3_4::Name, Imf_3_4::Attribute *>, std::_Select1st<std::pair<const Imf_3_4::Name, Imf_3_4::Attribute *>>, std::less<Imf_3_4::Name>>::_Rb_tree_impl" }
%"struct.std::_Rb_tree<Imf_3_4::Name, std::pair<const Imf_3_4::Name, Imf_3_4::Attribute *>, std::_Select1st<std::pair<const Imf_3_4::Name, Imf_3_4::Attribute *>>, std::less<Imf_3_4::Name>>::_Rb_tree_impl" = type { [8 x i8], %"struct.std::_Rb_tree_header" }
%"struct.std::_Rb_tree_header" = type { %"struct.std::_Rb_tree_node_base", i64 }
%"struct.std::_Rb_tree_node_base" = type { i32, ptr, ptr, ptr }
%"class.Imath_3_2::Vec2.9" = type { float, float }
%"class.Imath_3_2::Box" = type { %"class.Imath_3_2::Vec2", %"class.Imath_3_2::Vec2" }
%"class.Imath_3_2::Vec2" = type { i32, i32 }

; Function Attrs: inlinehint mustprogress nounwind uwtable
define linkonce_odr hidden noundef nonnull align 4 dereferenceable(8) ptr @_ZN9Imath_3_24Vec2IiEaSERKS1_(ptr noundef nonnull align 4 dereferenceable(8) %0, ptr noundef nonnull align 4 dereferenceable(8) %1) #7 comdat align 2 {
  %3 = alloca ptr, align 8
  %4 = alloca ptr, align 8
  store ptr %0, ptr %3, align 8, !tbaa !116
  store ptr %1, ptr %4, align 8, !tbaa !116
  %5 = load ptr, ptr %3, align 8
  %6 = load ptr, ptr %4, align 8, !tbaa !116
  %7 = getelementptr inbounds nuw %"class.Imath_3_2::Vec2", ptr %6, i32 0, i32 0
  %8 = load i32, ptr %7, align 4, !tbaa !118
  %9 = getelementptr inbounds nuw %"class.Imath_3_2::Vec2", ptr %5, i32 0, i32 0
  store i32 %8, ptr %9, align 4, !tbaa !118
  %10 = load ptr, ptr %4, align 8, !tbaa !116
  %11 = getelementptr inbounds nuw %"class.Imath_3_2::Vec2", ptr %10, i32 0, i32 1
  %12 = load i32, ptr %11, align 4, !tbaa !119
  %13 = getelementptr inbounds nuw %"class.Imath_3_2::Vec2", ptr %5, i32 0, i32 1
  store i32 %12, ptr %13, align 4, !tbaa !119
  ret ptr %5
}

; Function Attrs: mustprogress uwtable
define void @_ZN7Imf_3_413saveDeepImageERKNSt7__cxx1112basic_stringIcSt11char_traitsIcESaIcEEERKNS_6HeaderERKNS_9DeepImageENS_16DataWindowSourceE(ptr noundef nonnull align 8 dereferenceable(32) %0, ptr noundef nonnull align 8 dereferenceable(49) %1, ptr noundef nonnull align 8 dereferenceable(104) %2, i32 noundef %3) #6 {
  %5 = alloca ptr, align 8
  %6 = alloca ptr, align 8
  %7 = alloca ptr, align 8
  %8 = alloca i32, align 4
  store ptr %0, ptr %5, align 8, !tbaa !8
  store ptr %1, ptr %6, align 8, !tbaa !12
  store ptr %2, ptr %7, align 8, !tbaa !14
  store i32 %3, ptr %8, align 4, !tbaa !16
  %9 = load ptr, ptr %7, align 8, !tbaa !14
  %10 = call noundef i32 @_ZNK7Imf_3_45Image9levelModeEv(ptr noundef nonnull align 8 dereferenceable(104) %9)
  %11 = icmp ne i32 %10, 0
  br i1 %11, label %15, label %12

12:                                               ; preds = %4
  %13 = load ptr, ptr %6, align 8, !tbaa !12
  %14 = call noundef zeroext i1 @_ZNK7Imf_3_46Header18hasTileDescriptionEv(ptr noundef nonnull align 8 dereferenceable(49) %13)
  br i1 %14, label %15, label %20

15:                                               ; preds = %12, %4
  %16 = load ptr, ptr %5, align 8, !tbaa !8
  %17 = load ptr, ptr %6, align 8, !tbaa !12
  %18 = load ptr, ptr %7, align 8, !tbaa !14
  %19 = load i32, ptr %8, align 4, !tbaa !16
  call void @_ZN7Imf_3_418saveDeepTiledImageERKNSt7__cxx1112basic_stringIcSt11char_traitsIcESaIcEEERKNS_6HeaderERKNS_9DeepImageENS_16DataWindowSourceE(ptr noundef nonnull align 8 dereferenceable(32) %16, ptr noundef nonnull align 8 dereferenceable(49) %17, ptr noundef nonnull align 8 dereferenceable(104) %18, i32 noundef %19)
  br label %25

20:                                               ; preds = %12
  %21 = load ptr, ptr %5, align 8, !tbaa !8
  %22 = load ptr, ptr %6, align 8, !tbaa !12
  %23 = load ptr, ptr %7, align 8, !tbaa !14
  %24 = load i32, ptr %8, align 4, !tbaa !16
  call void @_ZN7Imf_3_421saveDeepScanLineImageERKNSt7__cxx1112basic_stringIcSt11char_traitsIcESaIcEEERKNS_6HeaderERKNS_9DeepImageENS_16DataWindowSourceE(ptr noundef nonnull align 8 dereferenceable(32) %21, ptr noundef nonnull align 8 dereferenceable(49) %22, ptr noundef nonnull align 8 dereferenceable(104) %23, i32 noundef %24)
  br label %25

25:                                               ; preds = %20, %15
  ret void
}

; Function Attrs: inlinehint mustprogress nounwind uwtable
define linkonce_odr hidden noundef nonnull align 4 dereferenceable(16) ptr @_ZN9Imath_3_23BoxINS_4Vec2IiEEEaSERKS3_(ptr noundef nonnull align 4 dereferenceable(16) %0, ptr noundef nonnull align 4 dereferenceable(16) %1) #7 comdat align 2 {
  %3 = alloca ptr, align 8
  %4 = alloca ptr, align 8
  store ptr %0, ptr %3, align 8, !tbaa !50
  store ptr %1, ptr %4, align 8, !tbaa !50
  %5 = load ptr, ptr %3, align 8
  %6 = getelementptr inbounds nuw %"class.Imath_3_2::Box", ptr %5, i32 0, i32 0
  %7 = load ptr, ptr %4, align 8, !tbaa !50
  %8 = getelementptr inbounds nuw %"class.Imath_3_2::Box", ptr %7, i32 0, i32 0
  %9 = call noundef nonnull align 4 dereferenceable(8) ptr @_ZN9Imath_3_24Vec2IiEaSERKS1_(ptr noundef nonnull align 4 dereferenceable(8) %6, ptr noundef nonnull align 4 dereferenceable(8) %8) #3
  %10 = getelementptr inbounds nuw %"class.Imath_3_2::Box", ptr %5, i32 0, i32 1
  %11 = load ptr, ptr %4, align 8, !tbaa !50
  %12 = getelementptr inbounds nuw %"class.Imath_3_2::Box", ptr %11, i32 0, i32 1
  %13 = call noundef nonnull align 4 dereferenceable(8) ptr @_ZN9Imath_3_24Vec2IiEaSERKS1_(ptr noundef nonnull align 4 dereferenceable(8) %10, ptr noundef nonnull align 4 dereferenceable(8) %12) #3
  ret ptr %5
}

; Function Attrs: inlinehint mustprogress nounwind uwtable
define linkonce_odr hidden void @_ZN9Imath_3_24Vec2IfEC2Eff(ptr noundef nonnull align 4 dereferenceable(8) %0, float noundef %1, float noundef %2) unnamed_addr #7 comdat align 2 {
  %4 = alloca ptr, align 8
  %5 = alloca float, align 4
  %6 = alloca float, align 4
  store ptr %0, ptr %4, align 8, !tbaa !43
  store float %1, ptr %5, align 4, !tbaa !45
  store float %2, ptr %6, align 4, !tbaa !45
  %7 = load ptr, ptr %4, align 8
  %8 = getelementptr inbounds nuw %"class.Imath_3_2::Vec2.9", ptr %7, i32 0, i32 0
  %9 = load float, ptr %5, align 4, !tbaa !45
  store float %9, ptr %8, align 4, !tbaa !47
  %10 = getelementptr inbounds nuw %"class.Imath_3_2::Vec2.9", ptr %7, i32 0, i32 1
  %11 = load float, ptr %6, align 4, !tbaa !45
  store float %11, ptr %10, align 4, !tbaa !49
  ret void
}

; Function Attrs: mustprogress uwtable
define void @_ZN7Imf_3_413saveDeepImageERKNSt7__cxx1112basic_stringIcSt11char_traitsIcESaIcEEERKNS_9DeepImageE(ptr noundef nonnull align 8 dereferenceable(32) %0, ptr noundef nonnull align 8 dereferenceable(104) %1) #6 personality ptr @__gxx_personality_v0 {
  %3 = alloca ptr, align 8
  %4 = alloca ptr, align 8
  %5 = alloca %"class.Imf_3_4::Header", align 8
  %6 = alloca %"class.Imath_3_2::Vec2.9", align 4
  %7 = alloca ptr, align 8
  %8 = alloca i32, align 4
  store ptr %0, ptr %3, align 8, !tbaa !8
  store ptr %1, ptr %4, align 8, !tbaa !14
  call void @llvm.lifetime.start.p0(i64 56, ptr %5) #3
  call void @llvm.lifetime.start.p0(i64 8, ptr %6) #3
  call void @_ZN9Imath_3_24Vec2IfEC2Eff(ptr noundef nonnull align 4 dereferenceable(8) %6, float noundef 0.000000e+00, float noundef 0.000000e+00) #3
  call void @_ZN7Imf_3_46HeaderC1EiifRKN9Imath_3_24Vec2IfEEfNS_9LineOrderENS_11CompressionE(ptr noundef nonnull align 8 dereferenceable(49) %5, i32 noundef 64, i32 noundef 64, float noundef 1.000000e+00, ptr noundef nonnull align 4 dereferenceable(8) %6, float noundef 1.000000e+00, i32 noundef 0, i32 noundef 3)
  call void @llvm.lifetime.end.p0(i64 8, ptr %6) #3
  %9 = load ptr, ptr %4, align 8, !tbaa !14
  %10 = invoke noundef nonnull align 4 dereferenceable(16) ptr @_ZNK7Imf_3_45Image10dataWindowEv(ptr noundef nonnull align 8 dereferenceable(104) %9)
          to label %11 unwind label %18

11:                                               ; preds = %2
  %12 = invoke noundef nonnull align 4 dereferenceable(16) ptr @_ZN7Imf_3_46Header13displayWindowEv(ptr noundef nonnull align 8 dereferenceable(49) %5)
          to label %13 unwind label %18

13:                                               ; preds = %11
  %14 = call noundef nonnull align 4 dereferenceable(16) ptr @_ZN9Imath_3_23BoxINS_4Vec2IiEEEaSERKS3_(ptr noundef nonnull align 4 dereferenceable(16) %12, ptr noundef nonnull align 4 dereferenceable(16) %10) #3
  %15 = load ptr, ptr %3, align 8, !tbaa !8
  %16 = load ptr, ptr %4, align 8, !tbaa !14
  invoke void @_ZN7Imf_3_413saveDeepImageERKNSt7__cxx1112basic_stringIcSt11char_traitsIcESaIcEEERKNS_6HeaderERKNS_9DeepImageENS_16DataWindowSourceE(ptr noundef nonnull align 8 dereferenceable(32) %15, ptr noundef nonnull align 8 dereferenceable(49) %5, ptr noundef nonnull align 8 dereferenceable(104) %16, i32 noundef 0)
          to label %17 unwind label %18

17:                                               ; preds = %13
  call void @_ZN7Imf_3_46HeaderD1Ev(ptr noundef nonnull align 8 dereferenceable(49) %5) #3
  call void @llvm.lifetime.end.p0(i64 56, ptr %5) #3
  ret void

18:                                               ; preds = %13, %11, %2
  %19 = landingpad { ptr, i32 }
          cleanup
  %20 = extractvalue { ptr, i32 } %19, 0
  store ptr %20, ptr %7, align 8
  %21 = extractvalue { ptr, i32 } %19, 1
  store i32 %21, ptr %8, align 4
  call void @_ZN7Imf_3_46HeaderD1Ev(ptr noundef nonnull align 8 dereferenceable(49) %5) #3
  call void @llvm.lifetime.end.p0(i64 56, ptr %5) #3
  br label %22

22:                                               ; preds = %18
  %23 = load ptr, ptr %7, align 8
  %24 = load i32, ptr %8, align 4
  %25 = insertvalue { ptr, i32 } poison, ptr %23, 0
  %26 = insertvalue { ptr, i32 } %25, i32 %24, 1
  resume { ptr, i32 } %26
}