; Function Attrs: mustprogress uwtable
define void @_ZN7Imf_3_413saveDeepImageERKNSt7__cxx1112basic_stringIcSt11char_traitsIcESaIcEEERKNS_9DeepImageE(ptr noundef nonnull readonly align 8 captures(none) dereferenceable(32) %0, ptr noundef nonnull align 8 dereferenceable(104) %1) local_unnamed_addr #5 personality ptr @__gxx_personality_v0 {
  %3 = alloca %"class.Imf_3_4::Header", align 8
  %4 = alloca %"class.Imath_3_2::Vec2.9", align 4
  call void @llvm.lifetime.start.p0(i64 56, ptr nonnull %3) #17
  call void @llvm.lifetime.start.p0(i64 8, ptr nonnull %4) #17
  store float 0.000000e+00, ptr %4, align 4, !tbaa !3
  %5 = getelementptr inbounds nuw i8, ptr %4, i64 4
  store float 0.000000e+00, ptr %5, align 4, !tbaa !8
  call void @_ZN7Imf_3_46HeaderC1EiifRKN9Imath_3_24Vec2IfEEfNS_9LineOrderENS_11CompressionE(ptr noundef nonnull align 8 dereferenceable(49) %3, i32 noundef 64, i32 noundef 64, float noundef 1.000000e+00, ptr noundef nonnull align 4 dereferenceable(8) %4, float noundef 1.000000e+00, i32 noundef 0, i32 noundef 3)
  call void @llvm.lifetime.end.p0(i64 8, ptr nonnull %4) #17
  %6 = invoke noundef nonnull align 4 dereferenceable(16) ptr @_ZNK7Imf_3_45Image10dataWindowEv(ptr noundef nonnull align 8 dereferenceable(104) %1)
          to label %7 unwind label %25

7:                                                ; preds = %2
  %8 = invoke noundef nonnull align 4 dereferenceable(16) ptr @_ZN7Imf_3_46Header13displayWindowEv(ptr noundef nonnull align 8 dereferenceable(49) %3)
          to label %9 unwind label %25

9:                                                ; preds = %7
  %10 = load i32, ptr %6, align 4, !tbaa !24
  store i32 %10, ptr %8, align 4, !tbaa !24
  %11 = getelementptr inbounds nuw i8, ptr %6, i64 4
  %12 = load i32, ptr %11, align 4, !tbaa !26
  %13 = getelementptr inbounds nuw i8, ptr %8, i64 4
  store i32 %12, ptr %13, align 4, !tbaa !26
  %14 = getelementptr inbounds nuw i8, ptr %8, i64 8
  %15 = getelementptr inbounds nuw i8, ptr %6, i64 8
  %16 = load i32, ptr %15, align 4, !tbaa !24
  store i32 %16, ptr %14, align 4, !tbaa !24
  %17 = getelementptr inbounds nuw i8, ptr %6, i64 12
  %18 = load i32, ptr %17, align 4, !tbaa !26
  %19 = getelementptr inbounds nuw i8, ptr %8, i64 12
  store i32 %18, ptr %19, align 4, !tbaa !26
  %20 = invoke noundef i32 @_ZNK7Imf_3_45Image9levelModeEv(ptr noundef nonnull align 8 dereferenceable(104) %1)
          to label %.noexc unwind label %25

.noexc:                                           ; preds = %9
  %.not.i = icmp eq i32 %20, 0
  br i1 %.not.i, label %21, label %23

21:                                               ; preds = %.noexc
  %22 = invoke noundef zeroext i1 @_ZNK7Imf_3_46Header18hasTileDescriptionEv(ptr noundef nonnull align 8 dereferenceable(49) %3)
          to label %.noexc4 unwind label %25

.noexc4:                                          ; preds = %21
  br i1 %22, label %23, label %24

23:                                               ; preds = %.noexc4, %.noexc
  invoke void @_ZN7Imf_3_418saveDeepTiledImageERKNSt7__cxx1112basic_stringIcSt11char_traitsIcESaIcEEERKNS_6HeaderERKNS_9DeepImageENS_16DataWindowSourceE(ptr noundef nonnull readonly align 8 dereferenceable(32) %0, ptr noundef nonnull align 8 dereferenceable(49) %3, ptr noundef nonnull align 8 dereferenceable(104) %1, i32 noundef 0)
          to label %_ZN7Imf_3_413saveDeepImageERKNSt7__cxx1112basic_stringIcSt11char_traitsIcESaIcEEERKNS_6HeaderERKNS_9DeepImageENS_16DataWindowSourceE.exit unwind label %25

24:                                               ; preds = %.noexc4
  invoke void @_ZN7Imf_3_421saveDeepScanLineImageERKNSt7__cxx1112basic_stringIcSt11char_traitsIcESaIcEEERKNS_6HeaderERKNS_9DeepImageENS_16DataWindowSourceE(ptr noundef nonnull readonly align 8 dereferenceable(32) %0, ptr noundef nonnull align 8 dereferenceable(49) %3, ptr noundef nonnull align 8 dereferenceable(104) %1, i32 noundef 0)
          to label %_ZN7Imf_3_413saveDeepImageERKNSt7__cxx1112basic_stringIcSt11char_traitsIcESaIcEEERKNS_6HeaderERKNS_9DeepImageENS_16DataWindowSourceE.exit unwind label %25

_ZN7Imf_3_413saveDeepImageERKNSt7__cxx1112basic_stringIcSt11char_traitsIcESaIcEEERKNS_6HeaderERKNS_9DeepImageENS_16DataWindowSourceE.exit: ; preds = %23, %24
  call void @_ZN7Imf_3_46HeaderD1Ev(ptr noundef nonnull align 8 dereferenceable(49) %3) #17
  call void @llvm.lifetime.end.p0(i64 56, ptr nonnull %3) #17
  ret void

25:                                               ; preds = %24, %23, %21, %9, %7, %2
  %26 = landingpad { ptr, i32 }
          cleanup
  call void @_ZN7Imf_3_46HeaderD1Ev(ptr noundef nonnull align 8 dereferenceable(49) %3) #17
  call void @llvm.lifetime.end.p0(i64 56, ptr nonnull %3) #17
  resume { ptr, i32 } %26
}